target datalayout = "e-m:e-p270:32:32-p271:32:32-p272:64:64-i64:64-i128:128-f80:128-n8:16:32:64-S128"
target triple = "x86_64-pc-linux-gnu"

@InterruptPending = external global i32, align 4
@.str.1 = private unnamed_addr constant [10 x i8] c"buffile.c\00", align 1
@.str.2 = private unnamed_addr constant [38 x i8] c"could not delete unknown BufFile \22%s\22\00", align 1
@__func__.BufFileDeleteFileSet = private unnamed_addr constant [21 x i8] c"BufFileDeleteFileSet\00", align 1
@.str.8 = private unnamed_addr constant [6 x i8] c"%s.%d\00", align 1

; Function Attrs: nounwind uwtable
define internal void @FileSetSegmentName(ptr noundef %0, ptr noundef %1, i32 noundef %2) #0 {
  %4 = alloca ptr, align 8
  %5 = alloca ptr, align 8
  %6 = alloca i32, align 4
  store ptr %0, ptr %4, align 8
  store ptr %1, ptr %5, align 8
  store i32 %2, ptr %6, align 4
  %7 = load ptr, ptr %4, align 8
  %8 = load ptr, ptr %5, align 8
  %9 = load i32, ptr %6, align 4
  %10 = call i32 (ptr, i64, ptr, ...) @pg_snprintf(ptr noundef %7, i64 noundef 1024, ptr noundef @.str.8, ptr noundef %8, i32 noundef %9)
  ret void
}

; Function Attrs: nounwind uwtable
define dso_local void @BufFileDeleteFileSet(ptr noundef %0, ptr noundef %1, i1 noundef zeroext %2) #0 {
  %4 = alloca ptr, align 8
  %5 = alloca ptr, align 8
  %6 = alloca i8, align 1
  %7 = alloca [1024 x i8], align 16
  %8 = alloca i32, align 4
  %9 = alloca i8, align 1
  store ptr %0, ptr %4, align 8
  store ptr %1, ptr %5, align 8
  %10 = zext i1 %2 to i8
  store i8 %10, ptr %6, align 1
  call void @llvm.lifetime.start.p0(i64 1024, ptr %7) #8
  call void @llvm.lifetime.start.p0(i64 4, ptr %8) #8
  store i32 0, ptr %8, align 4
  call void @llvm.lifetime.start.p0(i64 1, ptr %9) #8
  store i8 0, ptr %9, align 1
  br label %11

11:                                               ; preds = %32, %3
  %12 = getelementptr inbounds [1024 x i8], ptr %7, i64 0, i64 0
  %13 = load ptr, ptr %5, align 8
  %14 = load i32, ptr %8, align 4
  call void @FileSetSegmentName(ptr noundef %12, ptr noundef %13, i32 noundef %14)
  %15 = load ptr, ptr %4, align 8
  %16 = getelementptr inbounds [1024 x i8], ptr %7, i64 0, i64 0
  %17 = call zeroext i1 @FileSetDelete(ptr noundef %15, ptr noundef %16, i1 noundef zeroext true)
  br i1 %17, label %19, label %18

18:                                               ; preds = %11
  br label %33

19:                                               ; preds = %11
  store i8 1, ptr %9, align 1
  %20 = load i32, ptr %8, align 4
  %21 = add i32 %20, 1
  store i32 %21, ptr %8, align 4
  br label %22

22:                                               ; preds = %19
  %23 = load volatile i32, ptr @InterruptPending, align 4
  %24 = icmp ne i32 %23, 0
  %25 = zext i1 %24 to i32
  %26 = sext i32 %25 to i64
  %27 = call i64 @llvm.expect.i64(i64 %26, i64 0)
  %28 = icmp ne i64 %27, 0
  br i1 %28, label %29, label %30

29:                                               ; preds = %22
  call void @ProcessInterrupts()
  br label %30

30:                                               ; preds = %29, %22
  br label %31

31:                                               ; preds = %30
  br label %32

32:                                               ; preds = %31
  br label %11

33:                                               ; preds = %18
  %34 = load i8, ptr %9, align 1, !range !4, !noundef !5
  %35 = trunc i8 %34 to i1
  br i1 %35, label %51, label %36

36:                                               ; preds = %33
  %37 = load i8, ptr %6, align 1, !range !4, !noundef !5
  %38 = trunc i8 %37 to i1
  br i1 %38, label %51, label %39

39:                                               ; preds = %36
  br label %40

40:                                               ; preds = %39
  br i1 true, label %41, label %43

41:                                               ; preds = %40
  %42 = call zeroext i1 @errstart_cold(i32 noundef 21, ptr noundef null) #9
  br i1 %42, label %45, label %48

43:                                               ; preds = %40
  %44 = call zeroext i1 @errstart(i32 noundef 21, ptr noundef null)
  br i1 %44, label %45, label %48

45:                                               ; preds = %43, %41
  %46 = load ptr, ptr %5, align 8
  %47 = call i32 (ptr, ...) @errmsg_internal(ptr noundef @.str.2, ptr noundef %46)
  call void @errfinish(ptr noundef @.str.1, i32 noundef 387, ptr noundef @__func__.BufFileDeleteFileSet)
  br label %48

48:                                               ; preds = %45, %43, %41
  unreachable

49:                                               ; No predecessors!
  br label %50

50:                                               ; preds = %49
  br label %51

51:                                               ; preds = %50, %36, %33
  call void @llvm.lifetime.end.p0(i64 1, ptr %9) #8
  call void @llvm.lifetime.end.p0(i64 4, ptr %8) #8
  call void @llvm.lifetime.end.p0(i64 1024, ptr %7) #8
  ret void
}