; Function Attrs: nounwind uwtable
define dso_local void @BufFileDeleteFileSet(ptr noundef %0, ptr noundef %1, i1 noundef zeroext %2) local_unnamed_addr #0 {
  %4 = alloca [1024 x i8], align 16
  call void @llvm.lifetime.start.p0(i64 1024, ptr nonnull %4) #10
  %5 = call i32 (ptr, i64, ptr, ...) @pg_snprintf(ptr noundef nonnull %4, i64 noundef 1024, ptr noundef nonnull @.str.8, ptr noundef %1, i32 noundef 0) #10
  %6 = call zeroext i1 @FileSetDelete(ptr noundef %0, ptr noundef nonnull %4, i1 noundef zeroext true) #10
  br i1 %6, label %.lr.ph, label %._crit_edge

.lr.ph:                                           ; preds = %3, %10
  %.067 = phi i32 [ %7, %10 ], [ 0, %3 ]
  %7 = add i32 %.067, 1
  %8 = load volatile i32, ptr @InterruptPending, align 4
  %.not = icmp eq i32 %8, 0
  br i1 %.not, label %10, label %9, !prof !4

9:                                                ; preds = %.lr.ph
  call void @ProcessInterrupts() #10
  br label %10

10:                                               ; preds = %9, %.lr.ph
  %11 = call i32 (ptr, i64, ptr, ...) @pg_snprintf(ptr noundef nonnull %4, i64 noundef 1024, ptr noundef nonnull @.str.8, ptr noundef %1, i32 noundef %7) #10
  %12 = call zeroext i1 @FileSetDelete(ptr noundef %0, ptr noundef nonnull %4, i1 noundef zeroext true) #10
  br i1 %12, label %.lr.ph, label %._crit_edge

._crit_edge:                                      ; preds = %10, %3
  %brmerge = or i1 %2, %6
  br i1 %brmerge, label %16, label %13

13:                                               ; preds = %._crit_edge
  %14 = call zeroext i1 @errstart_cold(i32 noundef 21, ptr noundef null) #11
  call void @llvm.assume(i1 %14)
  %15 = call i32 (ptr, ...) @errmsg_internal(ptr noundef nonnull @.str.2, ptr noundef %1) #10
  call void @errfinish(ptr noundef nonnull @.str.1, i32 noundef 387, ptr noundef nonnull @__func__.BufFileDeleteFileSet) #10
  unreachable

16:                                               ; preds = %._crit_edge
  call void @llvm.lifetime.end.p0(i64 1024, ptr nonnull %4) #10
  ret void
}